target datalayout = "e-m:e-p270:32:32-p271:32:32-p272:64:64-i64:64-i128:128-f80:128-n8:16:32:64-S128"
target triple = "x86_64-pc-linux-gnu"

%struct.mi_stats_s = type { %struct.mi_stat_count_s, %struct.mi_stat_count_s, %struct.mi_stat_count_s, %struct.mi_stat_count_s, %struct.mi_stat_count_s, %struct.mi_stat_count_s, %struct.mi_stat_count_s, %struct.mi_stat_count_s, %struct.mi_stat_count_s, %struct.mi_stat_count_s, %struct.mi_stat_count_s, %struct.mi_stat_count_s, %struct.mi_stat_count_s, %struct.mi_stat_count_s, %struct.mi_stat_counter_s, %struct.mi_stat_counter_s, %struct.mi_stat_counter_s, %struct.mi_stat_counter_s, %struct.mi_stat_counter_s, %struct.mi_stat_counter_s, %struct.mi_stat_counter_s, %struct.mi_stat_counter_s }
%struct.mi_stat_count_s = type { i64, i64, i64, i64 }
%struct.mi_stat_counter_s = type { i64, i64 }
%struct.mi_commit_mask_s = type { [16 x i64] }
%struct.mi_page_s = type { i32, i32, i8, i16, i16, %union.mi_page_flags_s, i8, ptr, i32, i32, ptr, i64, i64, ptr, ptr, [1 x i64] }
%union.mi_page_flags_s = type { i8 }
%struct.mi_segment_s = type { i64, i8, i8, i8, i8, i64, %struct.mi_commit_mask_s, %struct.mi_commit_mask_s, ptr, ptr, i64, i64, i64, i64, i64, i64, i32, i64, i64, [1024 x %struct.mi_page_s] }
%struct.mi_segments_tld_s = type { [36 x %struct.mi_span_queue_s], i64, i64, i64, i64, ptr, ptr }
%struct.mi_span_queue_s = type { ptr, ptr, i64 }

; Function Attrs: nounwind uwtable
define internal ptr @_mi_segment_page_start_from_slice(ptr noundef %0, ptr noundef %1, i64 noundef %2, ptr noundef %3) #0 {
  %5 = alloca ptr, align 8
  %6 = alloca ptr, align 8
  %7 = alloca i64, align 8
  %8 = alloca ptr, align 8
  %9 = alloca i64, align 8
  %10 = alloca i64, align 8
  %11 = alloca i64, align 8
  store ptr %0, ptr %5, align 8, !tbaa !19
  store ptr %1, ptr %6, align 8, !tbaa !21
  store i64 %2, ptr %7, align 8, !tbaa !8
  store ptr %3, ptr %8, align 8, !tbaa !13
  call void @llvm.lifetime.start.p0(i64 8, ptr %9) #7
  %12 = load ptr, ptr %6, align 8, !tbaa !21
  %13 = load ptr, ptr %5, align 8, !tbaa !19
  %14 = getelementptr inbounds nuw %struct.mi_segment_s, ptr %13, i32 0, i32 19
  %15 = getelementptr inbounds [1024 x %struct.mi_page_s], ptr %14, i64 0, i64 0
  %16 = ptrtoint ptr %12 to i64
  %17 = ptrtoint ptr %15 to i64
  %18 = sub i64 %16, %17
  %19 = sdiv exact i64 %18, 80
  store i64 %19, ptr %9, align 8, !tbaa !8
  call void @llvm.lifetime.start.p0(i64 8, ptr %10) #7
  %20 = load ptr, ptr %6, align 8, !tbaa !21
  %21 = getelementptr inbounds nuw %struct.mi_page_s, ptr %20, i32 0, i32 0
  %22 = load i32, ptr %21, align 8, !tbaa !30
  %23 = zext i32 %22 to i64
  %24 = mul i64 %23, 65536
  store i64 %24, ptr %10, align 8, !tbaa !8
  call void @llvm.lifetime.start.p0(i64 8, ptr %11) #7
  %25 = load i64, ptr %7, align 8, !tbaa !8
  %26 = icmp uge i64 %25, 8
  br i1 %26, label %27, label %30

27:                                               ; preds = %4
  %28 = load i64, ptr %7, align 8, !tbaa !8
  %29 = icmp ule i64 %28, 1024
  br label %30

30:                                               ; preds = %27, %4
  %31 = phi i1 [ false, %4 ], [ %29, %27 ]
  %32 = select i1 %31, i32 128, i32 0
  %33 = sext i32 %32 to i64
  store i64 %33, ptr %11, align 8, !tbaa !8
  %34 = load ptr, ptr %8, align 8, !tbaa !13
  %35 = icmp ne ptr %34, null
  br i1 %35, label %36, label %41

36:                                               ; preds = %30
  %37 = load i64, ptr %10, align 8, !tbaa !8
  %38 = load i64, ptr %11, align 8, !tbaa !8
  %39 = sub i64 %37, %38
  %40 = load ptr, ptr %8, align 8, !tbaa !13
  store i64 %39, ptr %40, align 8, !tbaa !8
  br label %41

41:                                               ; preds = %36, %30
  %42 = load ptr, ptr %5, align 8, !tbaa !19
  %43 = load i64, ptr %9, align 8, !tbaa !8
  %44 = mul i64 %43, 65536
  %45 = load i64, ptr %11, align 8, !tbaa !8
  %46 = add i64 %44, %45
  %47 = getelementptr inbounds nuw i8, ptr %42, i64 %46
  call void @llvm.lifetime.end.p0(i64 8, ptr %11) #7
  call void @llvm.lifetime.end.p0(i64 8, ptr %10) #7
  call void @llvm.lifetime.end.p0(i64 8, ptr %9) #7
  ret ptr %47
}

; Function Attrs: nounwind uwtable
define hidden ptr @_mi_segment_page_start(ptr noundef %0, ptr noundef %1, ptr noundef %2) #0 {
  %4 = alloca ptr, align 8
  %5 = alloca ptr, align 8
  %6 = alloca ptr, align 8
  %7 = alloca ptr, align 8
  %8 = alloca ptr, align 8
  store ptr %0, ptr %4, align 8, !tbaa !19
  store ptr %1, ptr %5, align 8, !tbaa !21
  store ptr %2, ptr %6, align 8, !tbaa !13
  call void @llvm.lifetime.start.p0(i64 8, ptr %7) #7
  %9 = load ptr, ptr %5, align 8, !tbaa !21
  %10 = call ptr @mi_page_to_slice(ptr noundef %9)
  store ptr %10, ptr %7, align 8, !tbaa !21
  call void @llvm.lifetime.start.p0(i64 8, ptr %8) #7
  %11 = load ptr, ptr %4, align 8, !tbaa !19
  %12 = load ptr, ptr %7, align 8, !tbaa !21
  %13 = load ptr, ptr %5, align 8, !tbaa !21
  %14 = getelementptr inbounds nuw %struct.mi_page_s, ptr %13, i32 0, i32 9
  %15 = load i32, ptr %14, align 4, !tbaa !23
  %16 = zext i32 %15 to i64
  %17 = load ptr, ptr %6, align 8, !tbaa !13
  %18 = call ptr @_mi_segment_page_start_from_slice(ptr noundef %11, ptr noundef %12, i64 noundef %16, ptr noundef %17)
  store ptr %18, ptr %8, align 8, !tbaa !28
  %19 = load ptr, ptr %8, align 8, !tbaa !28
  call void @llvm.lifetime.end.p0(i64 8, ptr %8) #7
  call void @llvm.lifetime.end.p0(i64 8, ptr %7) #7
  ret ptr %19
}

; Function Attrs: inlinehint nounwind uwtable
define internal ptr @_mi_page_segment(ptr noundef %0) #2 {
  %2 = alloca ptr, align 8
  %3 = alloca ptr, align 8
  store ptr %0, ptr %2, align 8, !tbaa !21
  call void @llvm.lifetime.start.p0(i64 8, ptr %3) #7
  %4 = load ptr, ptr %2, align 8, !tbaa !21
  %5 = call ptr @_mi_ptr_segment(ptr noundef %4)
  store ptr %5, ptr %3, align 8, !tbaa !19
  %6 = load ptr, ptr %3, align 8, !tbaa !19
  call void @llvm.lifetime.end.p0(i64 8, ptr %3) #7
  ret ptr %6
}

; Function Attrs: inlinehint nounwind uwtable
define internal ptr @mi_page_to_slice(ptr noundef %0) #2 {
  %2 = alloca ptr, align 8
  store ptr %0, ptr %2, align 8, !tbaa !21
  %3 = load ptr, ptr %2, align 8, !tbaa !21
  ret ptr %3
}

; Function Attrs: inlinehint nounwind uwtable
define internal ptr @_mi_page_start(ptr noundef %0, ptr noundef %1, ptr noundef %2) #2 {
  %4 = alloca ptr, align 8
  %5 = alloca ptr, align 8
  %6 = alloca ptr, align 8
  store ptr %0, ptr %4, align 8, !tbaa !19
  store ptr %1, ptr %5, align 8, !tbaa !21
  store ptr %2, ptr %6, align 8, !tbaa !13
  %7 = load ptr, ptr %4, align 8, !tbaa !19
  %8 = load ptr, ptr %5, align 8, !tbaa !21
  %9 = load ptr, ptr %6, align 8, !tbaa !13
  %10 = call ptr @_mi_segment_page_start(ptr noundef %7, ptr noundef %8, ptr noundef %9)
  ret ptr %10
}

; Function Attrs: inlinehint nounwind uwtable
define internal i64 @mi_page_block_size(ptr noundef %0) #2 {
  %2 = alloca i64, align 8
  %3 = alloca ptr, align 8
  %4 = alloca i64, align 8
  %5 = alloca i32, align 4
  %6 = alloca i64, align 8
  store ptr %0, ptr %3, align 8, !tbaa !21
  call void @llvm.lifetime.start.p0(i64 8, ptr %4) #7
  %7 = load ptr, ptr %3, align 8, !tbaa !21
  %8 = getelementptr inbounds nuw %struct.mi_page_s, ptr %7, i32 0, i32 9
  %9 = load i32, ptr %8, align 4, !tbaa !23
  %10 = zext i32 %9 to i64
  store i64 %10, ptr %4, align 8, !tbaa !8
  %11 = load i64, ptr %4, align 8, !tbaa !8
  %12 = icmp ult i64 %11, 2147483648
  %13 = xor i1 %12, true
  %14 = xor i1 %13, true
  %15 = zext i1 %14 to i32
  %16 = sext i32 %15 to i64
  %17 = call i64 @llvm.expect.i64(i64 %16, i64 1)
  %18 = icmp ne i64 %17, 0
  br i1 %18, label %19, label %21

19:                                               ; preds = %1
  %20 = load i64, ptr %4, align 8, !tbaa !8
  store i64 %20, ptr %2, align 8
  store i32 1, ptr %5, align 4
  br label %27

21:                                               ; preds = %1
  call void @llvm.lifetime.start.p0(i64 8, ptr %6) #7
  %22 = load ptr, ptr %3, align 8, !tbaa !21
  %23 = call ptr @_mi_page_segment(ptr noundef %22)
  %24 = load ptr, ptr %3, align 8, !tbaa !21
  %25 = call ptr @_mi_segment_page_start(ptr noundef %23, ptr noundef %24, ptr noundef %6)
  %26 = load i64, ptr %6, align 8, !tbaa !8
  store i64 %26, ptr %2, align 8
  store i32 1, ptr %5, align 4
  call void @llvm.lifetime.end.p0(i64 8, ptr %6) #7
  br label %27

27:                                               ; preds = %21, %19
  call void @llvm.lifetime.end.p0(i64 8, ptr %4) #7
  %28 = load i64, ptr %2, align 8
  ret i64 %28
}

; Function Attrs: inlinehint nounwind uwtable
define internal ptr @_mi_ptr_segment(ptr noundef %0) #2 {
  %2 = alloca ptr, align 8
  store ptr %0, ptr %2, align 8, !tbaa !82
  %3 = load ptr, ptr %2, align 8, !tbaa !82
  %4 = ptrtoint ptr %3 to i64
  %5 = and i64 %4, -67108864
  %6 = inttoptr i64 %5 to ptr
  ret ptr %6
}

; Function Attrs: nounwind uwtable
define internal ptr @mi_segment_page_clear(ptr noundef %0, ptr noundef %1) #0 {
  %3 = alloca ptr, align 8
  %4 = alloca ptr, align 8
  %5 = alloca ptr, align 8
  %6 = alloca i64, align 8
  %7 = alloca i64, align 8
  %8 = alloca ptr, align 8
  %9 = alloca i64, align 8
  %10 = alloca ptr, align 8
  store ptr %0, ptr %3, align 8, !tbaa !21
  store ptr %1, ptr %4, align 8, !tbaa !31
  call void @llvm.lifetime.start.p0(i64 8, ptr %5) #7
  %11 = load ptr, ptr %3, align 8, !tbaa !21
  %12 = call ptr @_mi_ptr_segment(ptr noundef %11)
  store ptr %12, ptr %5, align 8, !tbaa !19
  call void @llvm.lifetime.start.p0(i64 8, ptr %6) #7
  %13 = load ptr, ptr %3, align 8, !tbaa !21
  %14 = getelementptr inbounds nuw %struct.mi_page_s, ptr %13, i32 0, i32 3
  %15 = load i16, ptr %14, align 2, !tbaa !41
  %16 = zext i16 %15 to i64
  %17 = load ptr, ptr %3, align 8, !tbaa !21
  %18 = call i64 @mi_page_block_size(ptr noundef %17)
  %19 = mul i64 %16, %18
  store i64 %19, ptr %6, align 8, !tbaa !8
  %20 = load ptr, ptr %4, align 8, !tbaa !31
  %21 = getelementptr inbounds nuw %struct.mi_segments_tld_s, ptr %20, i32 0, i32 5
  %22 = load ptr, ptr %21, align 8, !tbaa !42
  %23 = getelementptr inbounds nuw %struct.mi_stats_s, ptr %22, i32 0, i32 5
  %24 = load i64, ptr %6, align 8, !tbaa !8
  call void @_mi_stat_decrease(ptr noundef %23, i64 noundef %24)
  %25 = load ptr, ptr %4, align 8, !tbaa !31
  %26 = getelementptr inbounds nuw %struct.mi_segments_tld_s, ptr %25, i32 0, i32 5
  %27 = load ptr, ptr %26, align 8, !tbaa !42
  %28 = getelementptr inbounds nuw %struct.mi_stats_s, ptr %27, i32 0, i32 1
  call void @_mi_stat_decrease(ptr noundef %28, i64 noundef 1)
  %29 = load ptr, ptr %5, align 8, !tbaa !19
  %30 = getelementptr inbounds nuw %struct.mi_segment_s, ptr %29, i32 0, i32 1
  %31 = load i8, ptr %30, align 8, !tbaa !46, !range !38, !noundef !39
  %32 = trunc i8 %31 to i1
  br i1 %32, label %56, label %33

33:                                               ; preds = %2
  %34 = load ptr, ptr %3, align 8, !tbaa !21
  %35 = getelementptr inbounds nuw %struct.mi_page_s, ptr %34, i32 0, i32 2
  %36 = load i8, ptr %35, align 8
  %37 = and i8 %36, 1
  %38 = icmp ne i8 %37, 0
  br i1 %38, label %56, label %39

39:                                               ; preds = %33
  %40 = call zeroext i1 @mi_option_is_enabled(i32 noundef 11)
  br i1 %40, label %41, label %56

41:                                               ; preds = %39
  call void @llvm.lifetime.start.p0(i64 8, ptr %7) #7
  call void @llvm.lifetime.start.p0(i64 8, ptr %8) #7
  %42 = load ptr, ptr %5, align 8, !tbaa !19
  %43 = load ptr, ptr %3, align 8, !tbaa !21
  %44 = call ptr @_mi_page_start(ptr noundef %42, ptr noundef %43, ptr noundef %7)
  store ptr %44, ptr %8, align 8, !tbaa !28
  %45 = load ptr, ptr %3, align 8, !tbaa !21
  %46 = getelementptr inbounds nuw %struct.mi_page_s, ptr %45, i32 0, i32 2
  %47 = load i8, ptr %46, align 8
  %48 = and i8 %47, -2
  %49 = or i8 %48, 1
  store i8 %49, ptr %46, align 8
  %50 = load ptr, ptr %8, align 8, !tbaa !28
  %51 = load i64, ptr %7, align 8, !tbaa !8
  %52 = load ptr, ptr %4, align 8, !tbaa !31
  %53 = getelementptr inbounds nuw %struct.mi_segments_tld_s, ptr %52, i32 0, i32 5
  %54 = load ptr, ptr %53, align 8, !tbaa !42
  %55 = call zeroext i1 @_mi_os_reset(ptr noundef %50, i64 noundef %51, ptr noundef %54)
  call void @llvm.lifetime.end.p0(i64 8, ptr %8) #7
  call void @llvm.lifetime.end.p0(i64 8, ptr %7) #7
  br label %56

56:                                               ; preds = %41, %39, %33, %2
  %57 = load ptr, ptr %3, align 8, !tbaa !21
  %58 = getelementptr inbounds nuw %struct.mi_page_s, ptr %57, i32 0, i32 2
  %59 = load i8, ptr %58, align 8
  %60 = and i8 %59, -5
  %61 = or i8 %60, 0
  store i8 %61, ptr %58, align 8
  call void @llvm.lifetime.start.p0(i64 8, ptr %9) #7
  store i64 10, ptr %9, align 8, !tbaa !8
  %62 = load ptr, ptr %3, align 8, !tbaa !21
  %63 = load i64, ptr %9, align 8, !tbaa !8
  %64 = getelementptr inbounds i8, ptr %62, i64 %63
  %65 = load i64, ptr %9, align 8, !tbaa !8
  %66 = sub i64 80, %65
  call void @llvm.memset.p0.i64(ptr align 1 %64, i8 0, i64 %66, i1 false)
  %67 = load ptr, ptr %3, align 8, !tbaa !21
  %68 = getelementptr inbounds nuw %struct.mi_page_s, ptr %67, i32 0, i32 9
  store i32 1, ptr %68, align 4, !tbaa !23
  call void @llvm.lifetime.start.p0(i64 8, ptr %10) #7
  %69 = load ptr, ptr %3, align 8, !tbaa !21
  %70 = call ptr @mi_page_to_slice(ptr noundef %69)
  %71 = load ptr, ptr %4, align 8, !tbaa !31
  %72 = call ptr @mi_segment_span_free_coalesce(ptr noundef %70, ptr noundef %71)
  store ptr %72, ptr %10, align 8, !tbaa !21
  %73 = load ptr, ptr %5, align 8, !tbaa !19
  %74 = getelementptr inbounds nuw %struct.mi_segment_s, ptr %73, i32 0, i32 12
  %75 = load i64, ptr %74, align 8, !tbaa !35
  %76 = add i64 %75, -1
  store i64 %76, ptr %74, align 8, !tbaa !35
  %77 = load ptr, ptr %10, align 8, !tbaa !21
  call void @llvm.lifetime.end.p0(i64 8, ptr %10) #7
  call void @llvm.lifetime.end.p0(i64 8, ptr %9) #7
  call void @llvm.lifetime.end.p0(i64 8, ptr %6) #7
  call void @llvm.lifetime.end.p0(i64 8, ptr %5) #7
  ret ptr %77
}