; Function Attrs: nounwind uwtable
define internal fastcc ptr @mi_segment_page_clear(ptr noundef %0, ptr noundef captures(address) %1) unnamed_addr #5 {
  %3 = ptrtoint ptr %0 to i64
  %4 = and i64 %3, -67108864
  %5 = inttoptr i64 %4 to ptr
  %6 = getelementptr inbounds nuw i8, ptr %0, i64 10
  %7 = load i16, ptr %6, align 2, !tbaa !28
  %8 = zext i16 %7 to i64
  %9 = getelementptr inbounds nuw i8, ptr %0, i64 28
  %10 = load i32, ptr %9, align 4, !tbaa !14
  %11 = icmp sgt i32 %10, -1
  br i1 %11, label %12, label %14, !prof !29

12:                                               ; preds = %2
  %13 = zext nneg i32 %10 to i64
  br label %mi_page_block_size.exit

14:                                               ; preds = %2
  %15 = load i32, ptr %0, align 8, !tbaa !21
  %16 = zext i32 %15 to i64
  %17 = shl nuw nsw i64 %16, 16
  br label %mi_page_block_size.exit

mi_page_block_size.exit:                          ; preds = %12, %14
  %.0.i = phi i64 [ %13, %12 ], [ %17, %14 ]
  %18 = mul nuw i64 %.0.i, %8
  %19 = getelementptr inbounds nuw i8, ptr %1, i64 896
  %20 = load ptr, ptr %19, align 8, !tbaa !30
  %21 = getelementptr inbounds nuw i8, ptr %20, i64 160
  tail call void @_mi_stat_decrease(ptr noundef nonnull %21, i64 noundef %18) #9
  %22 = load ptr, ptr %19, align 8, !tbaa !30
  %23 = getelementptr inbounds nuw i8, ptr %22, i64 32
  tail call void @_mi_stat_decrease(ptr noundef nonnull %23, i64 noundef 1) #9
  %24 = getelementptr inbounds nuw i8, ptr %5, i64 8
  %25 = load i8, ptr %24, align 8, !tbaa !34, !range !35, !noundef !36
  %26 = trunc nuw i8 %25 to i1
  br i1 %26, label %53, label %27

27:                                               ; preds = %mi_page_block_size.exit
  %28 = getelementptr inbounds nuw i8, ptr %0, i64 8
  %29 = load i8, ptr %28, align 8
  %30 = and i8 %29, 1
  %.not = icmp eq i8 %30, 0
  br i1 %.not, label %31, label %53

31:                                               ; preds = %27
  %32 = tail call zeroext i1 @mi_option_is_enabled(i32 noundef 11) #9
  br i1 %32, label %33, label %53

33:                                               ; preds = %31
  %34 = load i32, ptr %9, align 4, !tbaa !14
  %35 = add i32 %34, -8
  %36 = icmp ult i32 %35, 1017
  %37 = select i1 %36, i64 128, i64 0
  %38 = load i32, ptr %0, align 8, !tbaa !21
  %39 = zext i32 %38 to i64
  %40 = shl nuw nsw i64 %39, 16
  %41 = sub nsw i64 %40, %37
  %42 = getelementptr inbounds nuw i8, ptr %5, i64 368
  %43 = ptrtoint ptr %42 to i64
  %44 = sub i64 %3, %43
  %45 = sdiv exact i64 %44, 80
  %46 = shl i64 %45, 16
  %47 = or disjoint i64 %37, %46
  %48 = getelementptr inbounds nuw i8, ptr %5, i64 %47
  %49 = load i8, ptr %28, align 8
  %50 = or i8 %49, 1
  store i8 %50, ptr %28, align 8
  %51 = load ptr, ptr %19, align 8, !tbaa !30
  %52 = tail call zeroext i1 @_mi_os_reset(ptr noundef %48, i64 noundef %41, ptr noundef %51) #9
  br label %53

53:                                               ; preds = %33, %31, %27, %mi_page_block_size.exit
  %54 = getelementptr inbounds nuw i8, ptr %0, i64 8
  %55 = load i8, ptr %54, align 8
  %56 = and i8 %55, -5
  store i8 %56, ptr %54, align 8
  tail call void @llvm.memset.p0.i64(ptr noundef nonnull align 1 dereferenceable(70) %6, i8 0, i64 70, i1 false)
  store i32 1, ptr %9, align 4, !tbaa !14
  %57 = tail call fastcc ptr @mi_segment_span_free_coalesce(ptr noundef nonnull %0, ptr noundef nonnull %1)
  %58 = getelementptr inbounds nuw i8, ptr %5, i64 312
  %59 = load i64, ptr %58, align 8, !tbaa !22
  %60 = add i64 %59, -1
  store i64 %60, ptr %58, align 8, !tbaa !22
  ret ptr %57
}